target datalayout = "e-m:e-p270:32:32-p271:32:32-p272:64:64-i64:64-i128:128-f80:128-n8:16:32:64-S128"
target triple = "x86_64-pc-linux-gnu"

%struct.ParseState = type { ptr, ptr, i32, i32, ptr, ptr, ptr, ptr, ptr, ptr, i8, ptr, ptr, ptr, ptr, ptr, ptr, i8, ptr, i32, i32, ptr, ptr, i8, i8, ptr, i8, i8, i8, i8, i8, ptr, ptr, ptr, ptr, ptr, ptr }
%struct.ForEachState = type { ptr, i32 }
%struct.List = type { i32, i32, i32, ptr, [0 x %union.ListCell] }
%union.ListCell = type { ptr }
%struct.ParseNamespaceItem = type { ptr, ptr, i32, ptr, ptr, i8, i8, i8, i8, i32 }

@.str.1 = private unnamed_addr constant [17 x i8] c"parse_relation.c\00", align 1
@.str.2 = private unnamed_addr constant [34 x i8] c"nsitem not found (internal error)\00", align 1
@__func__.GetNSItemByRangeTablePosn = private unnamed_addr constant [26 x i8] c"GetNSItemByRangeTablePosn\00", align 1

; Function Attrs: nounwind uwtable
define dso_local ptr @GetNSItemByRangeTablePosn(ptr noundef %0, i32 noundef %1, i32 noundef %2) #0 {
  %4 = alloca ptr, align 8
  %5 = alloca ptr, align 8
  %6 = alloca i32, align 4
  %7 = alloca i32, align 4
  %8 = alloca ptr, align 8
  %9 = alloca %struct.ForEachState, align 8
  %10 = alloca i32, align 4
  %11 = alloca ptr, align 8
  store ptr %0, ptr %5, align 8
  store i32 %1, ptr %6, align 4
  store i32 %2, ptr %7, align 4
  call void @llvm.lifetime.start.p0(i64 8, ptr %8) #8
  br label %12

12:                                               ; preds = %16, %3
  %13 = load i32, ptr %7, align 4
  %14 = add i32 %13, -1
  store i32 %14, ptr %7, align 4
  %15 = icmp sgt i32 %13, 0
  br i1 %15, label %16, label %20

16:                                               ; preds = %12
  %17 = load ptr, ptr %5, align 8
  %18 = getelementptr inbounds nuw %struct.ParseState, ptr %17, i32 0, i32 0
  %19 = load ptr, ptr %18, align 8
  store ptr %19, ptr %5, align 8
  br label %12, !llvm.loop !14

20:                                               ; preds = %12
  call void @llvm.lifetime.start.p0(i64 16, ptr %9) #8
  %21 = getelementptr inbounds nuw %struct.ForEachState, ptr %9, i32 0, i32 0
  %22 = load ptr, ptr %5, align 8
  %23 = getelementptr inbounds nuw %struct.ParseState, ptr %22, i32 0, i32 9
  %24 = load ptr, ptr %23, align 8
  store ptr %24, ptr %21, align 8
  %25 = getelementptr inbounds nuw %struct.ForEachState, ptr %9, i32 0, i32 1
  store i32 0, ptr %25, align 8
  %26 = getelementptr i8, ptr %9, i64 12
  call void @llvm.memset.p0.i64(ptr align 4 %26, i8 0, i64 4, i1 false)
  br label %27

27:                                               ; preds = %67, %20
  %28 = getelementptr inbounds nuw %struct.ForEachState, ptr %9, i32 0, i32 0
  %29 = load ptr, ptr %28, align 8
  %30 = icmp ne ptr %29, null
  br i1 %30, label %31, label %48

31:                                               ; preds = %27
  %32 = getelementptr inbounds nuw %struct.ForEachState, ptr %9, i32 0, i32 1
  %33 = load i32, ptr %32, align 8
  %34 = getelementptr inbounds nuw %struct.ForEachState, ptr %9, i32 0, i32 0
  %35 = load ptr, ptr %34, align 8
  %36 = getelementptr inbounds nuw %struct.List, ptr %35, i32 0, i32 1
  %37 = load i32, ptr %36, align 4
  %38 = icmp slt i32 %33, %37
  br i1 %38, label %39, label %48

39:                                               ; preds = %31
  %40 = getelementptr inbounds nuw %struct.ForEachState, ptr %9, i32 0, i32 0
  %41 = load ptr, ptr %40, align 8
  %42 = getelementptr inbounds nuw %struct.List, ptr %41, i32 0, i32 3
  %43 = load ptr, ptr %42, align 8
  %44 = getelementptr inbounds nuw %struct.ForEachState, ptr %9, i32 0, i32 1
  %45 = load i32, ptr %44, align 8
  %46 = sext i32 %45 to i64
  %47 = getelementptr inbounds %union.ListCell, ptr %43, i64 %46
  store ptr %47, ptr %8, align 8
  br label %49

48:                                               ; preds = %31, %27
  store ptr null, ptr %8, align 8
  br label %49

49:                                               ; preds = %48, %39
  %50 = phi i32 [ 1, %39 ], [ 0, %48 ]
  %51 = icmp ne i32 %50, 0
  br i1 %51, label %53, label %52

52:                                               ; preds = %49
  store i32 4, ptr %10, align 4
  br label %71

53:                                               ; preds = %49
  call void @llvm.lifetime.start.p0(i64 8, ptr %11) #8
  %54 = load ptr, ptr %8, align 8
  %55 = load ptr, ptr %54, align 8
  store ptr %55, ptr %11, align 8
  %56 = load ptr, ptr %11, align 8
  %57 = getelementptr inbounds nuw %struct.ParseNamespaceItem, ptr %56, i32 0, i32 2
  %58 = load i32, ptr %57, align 8
  %59 = load i32, ptr %6, align 4
  %60 = icmp eq i32 %58, %59
  br i1 %60, label %61, label %63

61:                                               ; preds = %53
  %62 = load ptr, ptr %11, align 8
  store ptr %62, ptr %4, align 8
  store i32 1, ptr %10, align 4
  br label %64

63:                                               ; preds = %53
  store i32 0, ptr %10, align 4
  br label %64

64:                                               ; preds = %63, %61
  call void @llvm.lifetime.end.p0(i64 8, ptr %11) #8
  %65 = load i32, ptr %10, align 4
  switch i32 %65, label %71 [
    i32 0, label %66
  ]

66:                                               ; preds = %64
  br label %67

67:                                               ; preds = %66
  %68 = getelementptr inbounds nuw %struct.ForEachState, ptr %9, i32 0, i32 1
  %69 = load i32, ptr %68, align 8
  %70 = add i32 %69, 1
  store i32 %70, ptr %68, align 8
  br label %27, !llvm.loop !15

71:                                               ; preds = %64, %52
  call void @llvm.lifetime.end.p0(i64 16, ptr %9) #8
  %72 = load i32, ptr %10, align 4
  switch i32 %72, label %84 [
    i32 4, label %73
  ]

73:                                               ; preds = %71
  br label %74

74:                                               ; preds = %73
  br i1 true, label %75, label %77

75:                                               ; preds = %74
  %76 = call zeroext i1 @errstart_cold(i32 noundef 21, ptr noundef null) #9
  br i1 %76, label %79, label %81

77:                                               ; preds = %74
  %78 = call zeroext i1 @errstart(i32 noundef 21, ptr noundef null)
  br i1 %78, label %79, label %81

79:                                               ; preds = %77, %75
  %80 = call i32 (ptr, ...) @errmsg_internal(ptr noundef @.str.2)
  call void @errfinish(ptr noundef @.str.1, i32 noundef 536, ptr noundef @__func__.GetNSItemByRangeTablePosn)
  br label %81

81:                                               ; preds = %79, %77, %75
  unreachable

82:                                               ; No predecessors!
  br label %83

83:                                               ; preds = %82
  store ptr null, ptr %4, align 8
  store i32 1, ptr %10, align 4
  br label %84

84:                                               ; preds = %83, %71
  call void @llvm.lifetime.end.p0(i64 8, ptr %8) #8
  %85 = load ptr, ptr %4, align 8
  ret ptr %85
}