; Function Attrs: nounwind uwtable
define dso_local ptr @GetNSItemByRangeTablePosn(ptr noundef readonly captures(none) %0, i32 noundef %1, i32 noundef %2) local_unnamed_addr #0 {
  %4 = icmp sgt i32 %2, 0
  br i1 %4, label %.lr.ph, label %._crit_edge

.lr.ph:                                           ; preds = %3, %.lr.ph
  %.01629 = phi ptr [ %6, %.lr.ph ], [ %0, %3 ]
  %.01728 = phi i32 [ %5, %.lr.ph ], [ %2, %3 ]
  %5 = add nsw i32 %.01728, -1
  %6 = load ptr, ptr %.01629, align 8
  %7 = icmp samesign ugt i32 %.01728, 1
  br i1 %7, label %.lr.ph, label %._crit_edge, !llvm.loop !9

._crit_edge:                                      ; preds = %.lr.ph, %3
  %.016.lcssa = phi ptr [ %0, %3 ], [ %6, %.lr.ph ]
  %8 = getelementptr inbounds nuw i8, ptr %.016.lcssa, i64 64
  %9 = load ptr, ptr %8, align 8
  %.not = icmp eq ptr %9, null
  br i1 %.not, label %._crit_edge33, label %.lr.ph32

.lr.ph32:                                         ; preds = %._crit_edge
  %10 = getelementptr inbounds nuw i8, ptr %9, i64 4
  %11 = load i32, ptr %10, align 4
  %12 = icmp sgt i32 %11, 0
  br i1 %12, label %.lr.ph36, label %._crit_edge33

.lr.ph36:                                         ; preds = %.lr.ph32
  %13 = getelementptr inbounds nuw i8, ptr %9, i64 16
  %14 = load ptr, ptr %13, align 8
  %wide.trip.count = zext nneg i32 %11 to i64
  br label %16

15:                                               ; preds = %16
  %indvars.iv.next = add nuw nsw i64 %indvars.iv, 1
  %exitcond.not = icmp eq i64 %indvars.iv.next, %wide.trip.count
  br i1 %exitcond.not, label %._crit_edge33, label %16

16:                                               ; preds = %.lr.ph36, %15
  %indvars.iv = phi i64 [ 0, %.lr.ph36 ], [ %indvars.iv.next, %15 ]
  %17 = getelementptr inbounds nuw %union.ListCell, ptr %14, i64 %indvars.iv
  %18 = load ptr, ptr %17, align 8
  %19 = getelementptr inbounds nuw i8, ptr %18, i64 16
  %20 = load i32, ptr %19, align 8
  %.not21 = icmp eq i32 %20, %1
  br i1 %.not21, label %.split, label %15

._crit_edge33:                                    ; preds = %15, %.lr.ph32, %._crit_edge
  %21 = tail call zeroext i1 @errstart_cold(i32 noundef 21, ptr noundef null) #13
  tail call void @llvm.assume(i1 %21)
  %22 = tail call i32 (ptr, ...) @errmsg_internal(ptr noundef nonnull @.str.2) #11
  tail call void @errfinish(ptr noundef nonnull @.str.1, i32 noundef 536, ptr noundef nonnull @__func__.GetNSItemByRangeTablePosn) #11
  unreachable

.split:                                           ; preds = %16
  ret ptr %18
}